; Function Attrs: fn_ret_thunk_extern nounwind null_pointer_is_valid
define dso_local void @hiddev_hid_event(ptr nocapture noundef readonly %0, ptr nocapture noundef readonly %1, ptr noundef %2, i32 noundef %3) #0 align 16 {
  %5 = getelementptr inbounds i8, ptr %1, i64 44
  %6 = load i32, ptr %5, align 4
  switch i32 %6, label %7 [
    i32 0, label %11
    i32 1, label %10
  ]

7:                                                ; preds = %4
  %8 = icmp eq i32 %6, 2
  %9 = select i1 %8, i32 3, i32 0
  br label %11

10:                                               ; preds = %4
  br label %11

11:                                               ; preds = %10, %7, %4
  %12 = phi i32 [ 1, %4 ], [ %9, %7 ], [ 2, %10 ]
  %13 = getelementptr inbounds i8, ptr %1, i64 104
  %14 = load ptr, ptr %13, align 8
  %15 = getelementptr inbounds i8, ptr %14, i64 48
  %16 = load i32, ptr %15, align 8
  %17 = getelementptr inbounds i8, ptr %1, i64 112
  %18 = load i32, ptr %17, align 8
  %19 = getelementptr inbounds i8, ptr %1, i64 16
  %20 = load ptr, ptr %19, align 8
  %21 = ptrtoint ptr %2 to i64
  %22 = ptrtoint ptr %20 to i64
  %23 = sub i64 %21, %22
  %24 = sdiv exact i64 %23, 24
  %25 = trunc i64 %24 to i32
  %26 = load i32, ptr %2, align 4
  %27 = getelementptr i8, ptr %0, i64 7184
  %.val = load ptr, ptr %27, align 8
  %28 = getelementptr inbounds i8, ptr %.val, i64 96
  %29 = tail call i64 @_raw_spin_lock_irqsave(ptr noundef %28) #13
  %30 = getelementptr inbounds i8, ptr %.val, i64 80
  %31 = load ptr, ptr %30, align 8
  %32 = icmp eq ptr %31, %30
  br i1 %32, label %hiddev_send_event.exit, label %.preheader

.preheader:                                       ; preds = %11
  %33 = icmp eq i32 %18, -1
  br i1 %33, label %.preheader.split.us, label %.preheader.split

.preheader.split.us:                              ; preds = %.preheader, %49
  %34 = phi ptr [ %50, %49 ], [ %31, %.preheader ]
  %35 = getelementptr i8, ptr %34, i64 -24
  %36 = load i32, ptr %35, align 8
  %37 = and i32 %36, 2
  %38 = icmp eq i32 %37, 0
  br i1 %38, label %49, label %39

39:                                               ; preds = %.preheader.split.us
  %40 = getelementptr i8, ptr %34, i64 -49184
  %41 = getelementptr i8, ptr %34, i64 -32
  %42 = load i32, ptr %41, align 8
  %43 = sext i32 %42 to i64
  %44 = getelementptr [2048 x %struct.hiddev_usage_ref], ptr %40, i64 0, i64 %43
  store i32 %12, ptr %44, align 8
  %.sroa.5.0..sroa_idx.us = getelementptr inbounds i8, ptr %44, i64 4
  store i32 %16, ptr %.sroa.5.0..sroa_idx.us, align 4
  %.sroa.6.0..sroa_idx.us = getelementptr inbounds i8, ptr %44, i64 8
  store i32 -1, ptr %.sroa.6.0..sroa_idx.us, align 8
  %.sroa.8.0..sroa_idx.us = getelementptr inbounds i8, ptr %44, i64 12
  store i32 %25, ptr %.sroa.8.0..sroa_idx.us, align 4
  %.sroa.9.0..sroa_idx.us = getelementptr inbounds i8, ptr %44, i64 16
  store i32 %26, ptr %.sroa.9.0..sroa_idx.us, align 8
  %.sroa.10.0..sroa_idx.us = getelementptr inbounds i8, ptr %44, i64 20
  store i32 %3, ptr %.sroa.10.0..sroa_idx.us, align 4
  %45 = load i32, ptr %41, align 8
  %46 = add i32 %45, 1
  %47 = and i32 %46, 2047
  store i32 %47, ptr %41, align 8
  %48 = getelementptr i8, ptr %34, i64 -16
  tail call void @kill_fasync(ptr noundef %48, i32 noundef 29, i32 noundef 1) #13
  br label %49

49:                                               ; preds = %39, %.preheader.split.us
  %50 = load ptr, ptr %34, align 8
  %51 = icmp eq ptr %50, %30
  br i1 %51, label %hiddev_send_event.exit, label %.preheader.split.us, !llvm.loop !6

.preheader.split:                                 ; preds = %.preheader, %.preheader.split
  %52 = phi ptr [ %62, %.preheader.split ], [ %31, %.preheader ]
  %53 = getelementptr i8, ptr %52, i64 -49184
  %54 = getelementptr i8, ptr %52, i64 -32
  %55 = load i32, ptr %54, align 8
  %56 = sext i32 %55 to i64
  %57 = getelementptr [2048 x %struct.hiddev_usage_ref], ptr %53, i64 0, i64 %56
  store i32 %12, ptr %57, align 8
  %.sroa.5.0..sroa_idx = getelementptr inbounds i8, ptr %57, i64 4
  store i32 %16, ptr %.sroa.5.0..sroa_idx, align 4
  %.sroa.6.0..sroa_idx = getelementptr inbounds i8, ptr %57, i64 8
  store i32 %18, ptr %.sroa.6.0..sroa_idx, align 8
  %.sroa.8.0..sroa_idx = getelementptr inbounds i8, ptr %57, i64 12
  store i32 %25, ptr %.sroa.8.0..sroa_idx, align 4
  %.sroa.9.0..sroa_idx = getelementptr inbounds i8, ptr %57, i64 16
  store i32 %26, ptr %.sroa.9.0..sroa_idx, align 8
  %.sroa.10.0..sroa_idx = getelementptr inbounds i8, ptr %57, i64 20
  store i32 %3, ptr %.sroa.10.0..sroa_idx, align 4
  %58 = load i32, ptr %54, align 8
  %59 = add i32 %58, 1
  %60 = and i32 %59, 2047
  store i32 %60, ptr %54, align 8
  %61 = getelementptr i8, ptr %52, i64 -16
  tail call void @kill_fasync(ptr noundef %61, i32 noundef 29, i32 noundef 1) #13
  %62 = load ptr, ptr %52, align 8
  %63 = icmp eq ptr %62, %30
  br i1 %63, label %hiddev_send_event.exit, label %.preheader.split, !llvm.loop !6

hiddev_send_event.exit:                           ; preds = %.preheader.split, %49, %11
  tail call void @_raw_spin_unlock_irqrestore(ptr noundef %28, i64 noundef %29) #13
  %64 = getelementptr inbounds i8, ptr %.val, i64 48
  %65 = tail call i32 @__wake_up(ptr noundef %64, i32 noundef 1, i32 noundef 1, ptr noundef null) #13
  ret void
}